target datalayout = "e-m:e-p270:32:32-p271:32:32-p272:64:64-i64:64-i128:128-f80:128-n8:16:32:64-S128"
target triple = "x86_64-pc-linux-gnu"

%struct._gpa_hfinfo_t = type { i32, i32, ptr }
%struct._header_field_info = type { ptr, ptr, i32, i32, ptr, i64, ptr, i32, i32, i32, i32, ptr }
%struct._e_prefs = type { ptr, i32, %struct.color_t, %struct.color_t, %struct.color_t, %struct.color_t, %struct.color_t, %struct.color_t, %struct.color_t, i8, i32, ptr, i32, %struct.color_t, %struct.color_t, i32, %struct.color_t, %struct.color_t, i32, %struct.color_t, %struct.color_t, %struct.color_t, %struct.color_t, ptr, ptr, i8, i8, i8, i32, i32, i32, ptr, i32, ptr, i8, i8, i8, ptr, ptr, ptr, i32, i32, i32, i32, i8, i32, i32, i32, i32, i32, ptr, i8, i8, i8, i8, i8, ptr, ptr, ptr, ptr, ptr, ptr, ptr, ptr, ptr, i8, i8, i8, i8, i32, i8, i8, i8, ptr, i32, i8, i8, i32, i8, i8, i8, i32, i8, i32, i8, i8, i8, i32, i32, i32, ptr, i8, i8, i8, i8, i8, i8, i32, i32, i8, i8, i8, i8, i32, i32, i32, i32, i8, i8, i32, i8, i8, i32, i32, i8, i8, i8, i32, i8, i8, i8 }
%struct.color_t = type { i16, i16, i16 }
%struct._proto_node = type { ptr, ptr, ptr, ptr, ptr, ptr, ptr }
%struct.tree_data_t = type { ptr, i8, i8, i32, ptr, i32, i32 }
%struct.field_info = type { ptr, i32, i32, i32, i32, i32, i32, ptr, ptr, ptr, i32, i32 }
%struct.__va_list_tag = type { i32, i32, ptr, ptr }
%struct._packet_info = type { ptr, ptr, i32, i32, %struct.nstime_t, %struct.nstime_t, %struct.nstime_t, i8, ptr, ptr, ptr, ptr, %struct._address, %struct._address, %struct._address, %struct._address, %struct._address, %struct._address, i32, ptr, i8, [3 x i8], %struct.anon, i32, i32, i32, i32, ptr, i8, ptr, ptr, i16, i16, i32, i32, i16, i32, i32, ptr, ptr, ptr, i8, i8, i16, i16, i16, i32, i16, i16, ptr, ptr, ptr, ptr, ptr, i32, i32 }
%struct.nstime_t = type { i64, i32 }
%struct._address = type { i32, i32, ptr, ptr }
%struct.anon = type { i8, [3 x i8] }

@gpa_hfinfo = internal global %struct._gpa_hfinfo_t zeroinitializer, align 8
@wireshark_abort_on_dissector_bug = external global i8, align 1
@.str = private unnamed_addr constant [5 x i8] c"Epan\00", align 1
@.str.1 = private unnamed_addr constant [13 x i8] c"epan/proto.c\00", align 1
@.str.2 = private unnamed_addr constant [26 x i8] c"Unregistered hf! index=%d\00", align 1
@.str.3 = private unnamed_addr constant [34 x i8] c"%s:%u: failed assertion \22%s\22 (%s)\00", align 1
@.str.5 = private unnamed_addr constant [17 x i8] c"Unregistered hf!\00", align 1
@.str.7 = private unnamed_addr constant [50 x i8] c"hfindex > 0 && (unsigned)hfindex < gpa_hfinfo.len\00", align 1
@.str.8 = private unnamed_addr constant [38 x i8] c"gpa_hfinfo.hfi[hfindex] != ((void*)0)\00", align 1
@prefs = external global %struct._e_prefs, align 8
@wireshark_abort_on_too_many_items = external global i8, align 1
@.str.12 = private unnamed_addr constant [140 x i8] c"Adding %s would put more than %d items in the tree -- possible infinite loop (max number of items can be increased in advanced preferences)\00", align 1
@__func__.proto_tree_add_uint_bits_format_value = private unnamed_addr constant [38 x i8] c"proto_tree_add_uint_bits_format_value\00", align 1
@.str.181 = private unnamed_addr constant [69 x i8] c"field %s is not of type FT_UINT8, FT_UINT16, FT_UINT24, or FT_UINT32\00", align 1

; Function Attrs: inlinehint nounwind null_pointer_is_valid sspstrong uwtable
define internal zeroext i1 @proto_item_is_hidden(ptr noundef %0) #11 {
  %2 = alloca i1, align 1
  %3 = alloca ptr, align 8
  store ptr %0, ptr %3, align 8
  %4 = load ptr, ptr %3, align 8
  %5 = icmp ne ptr %4, null
  br i1 %5, label %6, label %27

6:                                                ; preds = %1
  %7 = load ptr, ptr %3, align 8
  %8 = getelementptr inbounds nuw %struct._proto_node, ptr %7, i32 0, i32 5
  %9 = load ptr, ptr %8, align 8
  %10 = icmp ne ptr %9, null
  br i1 %10, label %11, label %27

11:                                               ; preds = %6
  %12 = load ptr, ptr %3, align 8
  %13 = getelementptr inbounds nuw %struct._proto_node, ptr %12, i32 0, i32 5
  %14 = load ptr, ptr %13, align 8
  %15 = icmp ne ptr %14, null
  br i1 %15, label %16, label %23

16:                                               ; preds = %11
  %17 = load ptr, ptr %3, align 8
  %18 = getelementptr inbounds nuw %struct._proto_node, ptr %17, i32 0, i32 5
  %19 = load ptr, ptr %18, align 8
  %20 = getelementptr inbounds nuw %struct.field_info, ptr %19, i32 0, i32 6
  %21 = load i32, ptr %20, align 4
  %22 = and i32 %21, 1
  br label %24

23:                                               ; preds = %11
  br label %24

24:                                               ; preds = %23, %16
  %25 = phi i32 [ %22, %16 ], [ 0, %23 ]
  %26 = icmp ne i32 %25, 0
  store i1 %26, ptr %2, align 1
  br label %28

27:                                               ; preds = %6, %1
  store i1 true, ptr %2, align 1
  br label %28

28:                                               ; preds = %27, %24
  %29 = load i1, ptr %2, align 1
  ret i1 %29
}

; Function Attrs: null_pointer_is_valid sspstrong uwtable
define ptr @proto_tree_add_uint_bits_format_value(ptr noundef %0, i32 noundef %1, ptr noundef %2, i32 noundef %3, i32 noundef %4, i32 noundef %5, i32 noundef %6, ptr noundef %7, ...) #0 {
  %9 = alloca ptr, align 8
  %10 = alloca ptr, align 8
  %11 = alloca i32, align 4
  %12 = alloca ptr, align 8
  %13 = alloca i32, align 4
  %14 = alloca i32, align 4
  %15 = alloca i32, align 4
  %16 = alloca i32, align 4
  %17 = alloca ptr, align 8
  %18 = alloca [1 x %struct.__va_list_tag], align 16
  %19 = alloca ptr, align 8
  %20 = alloca ptr, align 8
  %21 = alloca i32, align 4
  store ptr %0, ptr %10, align 8
  store i32 %1, ptr %11, align 4
  store ptr %2, ptr %12, align 8
  store i32 %3, ptr %13, align 4
  store i32 %4, ptr %14, align 4
  store i32 %5, ptr %15, align 4
  store i32 %6, ptr %16, align 4
  store ptr %7, ptr %17, align 8
  call void @llvm.lifetime.start.p0(i64 24, ptr %18) #24
  call void @llvm.lifetime.start.p0(i64 8, ptr %19) #24
  call void @llvm.lifetime.start.p0(i64 8, ptr %20) #24
  %22 = load ptr, ptr %10, align 8
  %23 = icmp ne ptr %22, null
  br i1 %23, label %25, label %24

24:                                               ; preds = %8
  store ptr null, ptr %9, align 8
  store i32 1, ptr %21, align 4
  br label %169

25:                                               ; preds = %8
  %26 = load ptr, ptr %10, align 8
  %27 = getelementptr inbounds nuw %struct._proto_node, ptr %26, i32 0, i32 6
  %28 = load ptr, ptr %27, align 8
  %29 = getelementptr inbounds nuw %struct.tree_data_t, ptr %28, i32 0, i32 3
  %30 = load i32, ptr %29, align 4
  %31 = add i32 %30, 1
  store i32 %31, ptr %29, align 4
  %32 = load i32, ptr %11, align 4
  %33 = icmp eq i32 %32, 0
  br i1 %33, label %38, label %34

34:                                               ; preds = %25
  %35 = load i32, ptr %11, align 4
  %36 = load i32, ptr @gpa_hfinfo, align 8
  %37 = icmp ugt i32 %35, %36
  br i1 %37, label %38, label %43

38:                                               ; preds = %34, %25
  %39 = load i8, ptr @wireshark_abort_on_dissector_bug, align 1, !range !10, !noundef !11
  %40 = trunc i8 %39 to i1
  br i1 %40, label %41, label %43

41:                                               ; preds = %38
  %42 = load i32, ptr %11, align 4
  call void (ptr, i32, ptr, i64, ptr, ptr, ...) @ws_log_fatal_full(ptr noundef @.str, i32 noundef 7, ptr noundef @.str.1, i64 noundef 13660, ptr noundef @__func__.proto_tree_add_uint_bits_format_value, ptr noundef @.str.2, i32 noundef %42) #27
  unreachable

43:                                               ; preds = %38, %34
  %44 = load i32, ptr %11, align 4
  %45 = icmp sgt i32 %44, 0
  br i1 %45, label %46, label %51

46:                                               ; preds = %43
  %47 = load i32, ptr %11, align 4
  %48 = load i32, ptr @gpa_hfinfo, align 8
  %49 = icmp ult i32 %47, %48
  br i1 %49, label %50, label %51

50:                                               ; preds = %46
  br label %53

51:                                               ; preds = %46, %43
  call void (ptr, ...) @proto_report_dissector_bug(ptr noundef @.str.3, ptr noundef @.str.1, i32 noundef 13660, ptr noundef @.str.7, ptr noundef @.str.5) #27
  unreachable

52:                                               ; No predecessors!
  br label %53

53:                                               ; preds = %52, %50
  %54 = load ptr, ptr getelementptr inbounds nuw (%struct._gpa_hfinfo_t, ptr @gpa_hfinfo, i32 0, i32 2), align 8
  %55 = load i32, ptr %11, align 4
  %56 = sext i32 %55 to i64
  %57 = getelementptr ptr, ptr %54, i64 %56
  %58 = load ptr, ptr %57, align 8
  %59 = icmp ne ptr %58, null
  br i1 %59, label %60, label %61

60:                                               ; preds = %53
  br label %63

61:                                               ; preds = %53
  call void (ptr, ...) @proto_report_dissector_bug(ptr noundef @.str.3, ptr noundef @.str.1, i32 noundef 13660, ptr noundef @.str.8, ptr noundef @.str.5) #27
  unreachable

62:                                               ; No predecessors!
  br label %63

63:                                               ; preds = %62, %60
  %64 = load ptr, ptr getelementptr inbounds nuw (%struct._gpa_hfinfo_t, ptr @gpa_hfinfo, i32 0, i32 2), align 8
  %65 = load i32, ptr %11, align 4
  %66 = sext i32 %65 to i64
  %67 = getelementptr ptr, ptr %64, i64 %66
  %68 = load ptr, ptr %67, align 8
  store ptr %68, ptr %20, align 8
  %69 = load ptr, ptr %10, align 8
  %70 = getelementptr inbounds nuw %struct._proto_node, ptr %69, i32 0, i32 6
  %71 = load ptr, ptr %70, align 8
  %72 = getelementptr inbounds nuw %struct.tree_data_t, ptr %71, i32 0, i32 3
  %73 = load i32, ptr %72, align 4
  %74 = load i32, ptr getelementptr inbounds nuw (%struct._e_prefs, ptr @prefs, i32 0, i32 42), align 8
  %75 = icmp ugt i32 %73, %74
  br i1 %75, label %76, label %101

76:                                               ; preds = %63
  %77 = load i8, ptr @wireshark_abort_on_too_many_items, align 1, !range !10, !noundef !11
  %78 = trunc i8 %77 to i1
  br i1 %78, label %79, label %84

79:                                               ; preds = %76
  %80 = load ptr, ptr %20, align 8
  %81 = getelementptr inbounds nuw %struct._header_field_info, ptr %80, i32 0, i32 1
  %82 = load ptr, ptr %81, align 8
  %83 = load i32, ptr getelementptr inbounds nuw (%struct._e_prefs, ptr @prefs, i32 0, i32 42), align 8
  call void (ptr, i32, ptr, i64, ptr, ptr, ...) @ws_log_fatal_full(ptr noundef @.str, i32 noundef 7, ptr noundef @.str.1, i64 noundef 13660, ptr noundef @__func__.proto_tree_add_uint_bits_format_value, ptr noundef @.str.12, ptr noundef %82, i32 noundef %83) #27
  unreachable

84:                                               ; preds = %76
  %85 = load ptr, ptr %10, align 8
  %86 = getelementptr inbounds nuw %struct._proto_node, ptr %85, i32 0, i32 6
  %87 = load ptr, ptr %86, align 8
  %88 = getelementptr inbounds nuw %struct.tree_data_t, ptr %87, i32 0, i32 3
  store i32 0, ptr %88, align 4
  %89 = load ptr, ptr %10, align 8
  %90 = getelementptr inbounds nuw %struct._proto_node, ptr %89, i32 0, i32 6
  %91 = load ptr, ptr %90, align 8
  %92 = getelementptr inbounds nuw %struct.tree_data_t, ptr %91, i32 0, i32 4
  %93 = load ptr, ptr %92, align 8
  %94 = getelementptr inbounds nuw %struct._packet_info, ptr %93, i32 0, i32 51
  %95 = load ptr, ptr %94, align 8
  %96 = load ptr, ptr %20, align 8
  %97 = getelementptr inbounds nuw %struct._header_field_info, ptr %96, i32 0, i32 1
  %98 = load ptr, ptr %97, align 8
  %99 = load i32, ptr getelementptr inbounds nuw (%struct._e_prefs, ptr @prefs, i32 0, i32 42), align 8
  %100 = call noalias ptr (ptr, ptr, ...) @wmem_strdup_printf(ptr noundef %95, ptr noundef @.str.12, ptr noundef %98, i32 noundef %99)
  call void @except_throw(i64 noundef 1, i64 noundef 6, ptr noundef %100) #27
  unreachable

101:                                              ; preds = %63
  %102 = load ptr, ptr %10, align 8
  %103 = getelementptr inbounds nuw %struct._proto_node, ptr %102, i32 0, i32 6
  %104 = load ptr, ptr %103, align 8
  %105 = getelementptr inbounds nuw %struct.tree_data_t, ptr %104, i32 0, i32 1
  %106 = load i8, ptr %105, align 8, !range !10, !noundef !11
  %107 = trunc i8 %106 to i1
  br i1 %107, label %139, label %108

108:                                              ; preds = %101
  %109 = load ptr, ptr %10, align 8
  %110 = call zeroext i1 @proto_item_is_hidden(ptr noundef %109)
  br i1 %110, label %111, label %138

111:                                              ; preds = %108
  %112 = load ptr, ptr %20, align 8
  %113 = getelementptr inbounds nuw %struct._header_field_info, ptr %112, i32 0, i32 9
  %114 = load i32, ptr %113, align 8
  %115 = icmp ne i32 %114, 2
  br i1 %115, label %116, label %137

116:                                              ; preds = %111
  %117 = load ptr, ptr %20, align 8
  %118 = getelementptr inbounds nuw %struct._header_field_info, ptr %117, i32 0, i32 9
  %119 = load i32, ptr %118, align 8
  %120 = icmp ne i32 %119, 3
  br i1 %120, label %121, label %137

121:                                              ; preds = %116
  %122 = load ptr, ptr %20, align 8
  %123 = getelementptr inbounds nuw %struct._header_field_info, ptr %122, i32 0, i32 2
  %124 = load i32, ptr %123, align 8
  %125 = icmp ne i32 %124, 1
  br i1 %125, label %133, label %126

126:                                              ; preds = %121
  %127 = load ptr, ptr %10, align 8
  %128 = getelementptr inbounds nuw %struct._proto_node, ptr %127, i32 0, i32 6
  %129 = load ptr, ptr %128, align 8
  %130 = getelementptr inbounds nuw %struct.tree_data_t, ptr %129, i32 0, i32 2
  %131 = load i8, ptr %130, align 1, !range !10, !noundef !11
  %132 = trunc i8 %131 to i1
  br i1 %132, label %133, label %137

133:                                              ; preds = %126, %121
  %134 = load ptr, ptr %10, align 8
  %135 = load ptr, ptr %20, align 8
  %136 = call ptr @proto_tree_add_fake_node(ptr noundef %134, ptr noundef %135)
  store ptr %136, ptr %9, align 8
  store i32 1, ptr %21, align 4
  br label %169

137:                                              ; preds = %126, %116, %111
  br label %138

138:                                              ; preds = %137, %108
  br label %139

139:                                              ; preds = %138, %101
  %140 = load ptr, ptr %20, align 8
  %141 = getelementptr inbounds nuw %struct._header_field_info, ptr %140, i32 0, i32 2
  %142 = load i32, ptr %141, align 8
  switch i32 %142, label %144 [
    i32 4, label %143
    i32 5, label %143
    i32 6, label %143
    i32 7, label %143
  ]

143:                                              ; preds = %139, %139, %139, %139
  br label %148

144:                                              ; preds = %139
  %145 = load ptr, ptr %20, align 8
  %146 = getelementptr inbounds nuw %struct._header_field_info, ptr %145, i32 0, i32 1
  %147 = load ptr, ptr %146, align 8
  call void (ptr, ...) @proto_report_dissector_bug(ptr noundef @.str.181, ptr noundef %147) #27
  unreachable

148:                                              ; preds = %143
  %149 = getelementptr inbounds [1 x %struct.__va_list_tag], ptr %18, i64 0, i64 0
  call void @llvm.va_start.p0(ptr %149)
  %150 = load ptr, ptr %10, align 8
  %151 = getelementptr inbounds nuw %struct._proto_node, ptr %150, i32 0, i32 6
  %152 = load ptr, ptr %151, align 8
  %153 = getelementptr inbounds nuw %struct.tree_data_t, ptr %152, i32 0, i32 4
  %154 = load ptr, ptr %153, align 8
  %155 = getelementptr inbounds nuw %struct._packet_info, ptr %154, i32 0, i32 51
  %156 = load ptr, ptr %155, align 8
  %157 = load ptr, ptr %17, align 8
  %158 = getelementptr inbounds [1 x %struct.__va_list_tag], ptr %18, i64 0, i64 0
  %159 = call noalias ptr @wmem_strdup_vprintf(ptr noundef %156, ptr noundef %157, ptr noundef %158)
  store ptr %159, ptr %19, align 8
  %160 = getelementptr inbounds [1 x %struct.__va_list_tag], ptr %18, i64 0, i64 0
  call void @llvm.va_end.p0(ptr %160)
  %161 = load ptr, ptr %10, align 8
  %162 = load i32, ptr %11, align 4
  %163 = load ptr, ptr %12, align 8
  %164 = load i32, ptr %13, align 4
  %165 = load i32, ptr %14, align 4
  %166 = load i32, ptr %16, align 4
  %167 = load ptr, ptr %19, align 8
  %168 = call ptr @proto_tree_add_bits_format_value(ptr noundef %161, i32 noundef %162, ptr noundef %163, i32 noundef %164, i32 noundef %165, ptr noundef %15, i32 noundef %166, ptr noundef %167)
  store ptr %168, ptr %9, align 8
  store i32 1, ptr %21, align 4
  br label %169

169:                                              ; preds = %148, %133, %24
  call void @llvm.lifetime.end.p0(i64 8, ptr %20) #24
  call void @llvm.lifetime.end.p0(i64 8, ptr %19) #24
  call void @llvm.lifetime.end.p0(i64 24, ptr %18) #24
  %170 = load ptr, ptr %9, align 8
  ret ptr %170
}